Certificate:
    Data:
        Version: 1 (0x0)
        Serial Number:
            2e:4b:e1:b5:46:49:66:aa:c5:ca:a3:ac:fb:62:73:6e:55:63:13:a4
        Signature Algorithm: ecdsa-with-SHA256
        Issuer: C=ES, ST=MA, L=Tres Cantos, O=eProsima, CN=eProsima Main Test CA/emailAddress=routertest@eprosima.com
        Validity
            Not Before: Mar 24 10:33:13 2025 GMT
            Not After : Mar 22 10:33:13 2035 GMT
        Subject: C=ES, ST=MA, O=eProsima, CN=BackdoorTestLocalPub1/emailAddress=routertest@eprosima.com
        Subject Public Key Info:
            Public Key Algorithm: id-ecPublicKey
                Public-Key: (256 bit)
                pub:
                    04:2c:e2:60:ca:11:8b:f5:ca:ed:9e:02:78:7b:ed:
                    c9:9d:9d:89:ac:7f:0d:d9:56:dc:e2:8a:1e:36:1a:
                    80:66:30:3d:72:ec:dc:d5:da:cb:3b:96:08:38:de:
                    71:b6:54:98:7c:04:48:e7:f9:37:c8:81:8f:4d:9a:
                    8c:cf:f2:6a:8a
                ASN1 OID: prime256v1
                NIST CURVE: P-256
    Signature Algorithm: ecdsa-with-SHA256
    Signature Value:
        30:46:02:21:00:8e:07:62:31:1b:20:e9:ba:22:15:fc:b4:0c:
        c2:84:7c:a7:65:d5:d2:4c:6c:60:b4:6e:29:e0:6e:df:15:28:
        37:02:21:00:81:3a:cd:7d:f5:91:11:b3:ca:fc:3c:b9:2e:61:
        10:62:76:d6:57:df:da:ba:0a:e0:45:0b:15:bb:97:67:85:ce
-----BEGIN CERTIFICATE-----
MIIB/TCCAaICFC5L4bVGSWaqxcqjrPtic25VYxOkMAoGCCqGSM49BAMCMIGLMQsw
CQYDVQQGEwJFUzELMAkGA1UECAwCTUExFDASBgNVBAcMC1RyZXMgQ2FudG9zMREw
DwYDVQQKDAhlUHJvc2ltYTEeMBwGA1UEAwwVZVByb3NpbWEgTWFpbiBUZXN0IENB
MSYwJAYJKoZIhvcNAQkBFhdyb3V0ZXJ0ZXN0QGVwcm9zaW1hLmNvbTAeFw0yNTAz
MjQxMDMzMTNaFw0zNTAzMjIxMDMzMTNaMHUxCzAJBgNVBAYTAkVTMQswCQYDVQQI
DAJNQTERMA8GA1UECgwIZVByb3NpbWExHjAcBgNVBAMMFUJhY2tkb29yVGVzdExv
Y2FsUHViMTEmMCQGCSqGSIb3DQEJARYXcm91dGVydGVzdEBlcHJvc2ltYS5jb20w
WTATBgcqhkjOPQIBBggqhkjOPQMBBwNCAAQs4mDKEYv1yu2eAnh77cmdnYmsfw3Z
Vtziih42GoBmMD1y7NzV2ss7lgg43nG2VJh8BEjn+TfIgY9NmozP8mqKMAoGCCqG
SM49BAMCA0kAMEYCIQCOB2IxGyDpuiIV/LQMwoR8p2XV0kxsYLRuKeBu3xUoNwIh
AIE6zX31kRGzyvw8uS5hEGJ21lff2roK4EULFbuXZ4XO
-----END CERTIFICATE-----
