Certificate:
    Data:
        Version: 1 (0x0)
        Serial Number:
            2e:4b:e1:b5:46:49:66:aa:c5:ca:a3:ac:fb:62:73:6e:55:63:13:ad
        Signature Algorithm: ecdsa-with-SHA256
        Issuer: C=ES, ST=MA, L=Tres Cantos, O=eProsima, CN=eProsima Main Test CA/emailAddress=routertest@eprosima.com
        Validity
            Not Before: Mar 24 10:33:13 2025 GMT
            Not After : Mar 22 10:33:13 2035 GMT
        Subject: C=ES, ST=MA, O=eProsima, CN=BackdoorTestRouter/emailAddress=routertest@eprosima.com
        Subject Public Key Info:
            Public Key Algorithm: id-ecPublicKey
                Public-Key: (256 bit)
                pub:
                    04:67:46:1c:95:3a:79:5e:4e:ba:2e:68:03:2c:79:
                    63:ff:fa:19:53:10:54:ea:83:52:ac:f6:83:79:a9:
                    3e:ff:ba:d9:fe:2f:71:56:94:13:93:9a:6b:c1:04:
                    1e:9c:77:47:20:dd:3f:9a:34:1e:a3:27:30:a3:57:
                    77:ae:c6:4b:b7
                ASN1 OID: prime256v1
                NIST CURVE: P-256
    Signature Algorithm: ecdsa-with-SHA256
    Signature Value:
        30:45:02:21:00:81:a0:90:2d:51:e5:35:46:ed:75:d0:4f:7c:
        0b:78:8f:3a:2c:17:c4:3b:ca:06:f0:1f:94:94:ea:ba:5d:68:
        0a:02:20:12:0d:7c:c8:7b:aa:9b:ed:4c:24:60:e9:75:7a:d2:
        21:dc:73:c3:1a:97:47:5a:2b:11:19:ab:5d:23:a8:6a:7e
-----BEGIN CERTIFICATE-----
MIIB+TCCAZ8CFC5L4bVGSWaqxcqjrPtic25VYxOtMAoGCCqGSM49BAMCMIGLMQsw
CQYDVQQGEwJFUzELMAkGA1UECAwCTUExFDASBgNVBAcMC1RyZXMgQ2FudG9zMREw
DwYDVQQKDAhlUHJvc2ltYTEeMBwGA1UEAwwVZVByb3NpbWEgTWFpbiBUZXN0IENB
MSYwJAYJKoZIhvcNAQkBFhdyb3V0ZXJ0ZXN0QGVwcm9zaW1hLmNvbTAeFw0yNTAz
MjQxMDMzMTNaFw0zNTAzMjIxMDMzMTNaMHIxCzAJBgNVBAYTAkVTMQswCQYDVQQI
DAJNQTERMA8GA1UECgwIZVByb3NpbWExGzAZBgNVBAMMEkJhY2tkb29yVGVzdFJv
dXRlcjEmMCQGCSqGSIb3DQEJARYXcm91dGVydGVzdEBlcHJvc2ltYS5jb20wWTAT
BgcqhkjOPQIBBggqhkjOPQMBBwNCAARnRhyVOnleTrouaAMseWP/+hlTEFTqg1Ks
9oN5qT7/utn+L3FWlBOTmmvBBB6cd0cg3T+aNB6jJzCjV3euxku3MAoGCCqGSM49
BAMCA0gAMEUCIQCBoJAtUeU1Ru110E98C3iPOiwXxDvKBvAflJTqul1oCgIgEg18
yHuqm+1MJGDpdXrSIdxzwxqXR1orERmrXSOoan4=
-----END CERTIFICATE-----
