Certificate:
    Data:
        Version: 1 (0x0)
        Serial Number: 2 (0x2)
    Signature Algorithm: ecdsa-with-SHA256
        Issuer: C=ES, ST=MA, L=Tres Cantos, O=eProsima, CN=eProsima Main Test CA/emailAddress=mainca@eprosima.com
        Validity
            Not Before: Oct 13 09:23:16 2016 GMT
            Not After : Oct 14 09:23:16 2016 GMT
        Subject: C=ES, ST=MA, O=eProsima, CN=Expired Publisher/emailAddress=expiredpub@eprosima.com
        Subject Public Key Info:
            Public Key Algorithm: id-ecPublicKey
                Public-Key: (256 bit)
                pub: 
                    04:6e:0b:61:43:4b:e4:0a:98:8b:56:f8:9b:f3:96:
                    dc:01:a7:31:00:46:2f:fb:45:bb:19:b2:eb:3b:38:
                    c8:c6:d1:43:be:b9:0c:2c:58:7f:c4:49:7f:ce:b9:
                    89:aa:98:15:95:a6:da:92:5b:21:a7:be:00:8f:8d:
                    95:ab:09:b9:68
                ASN1 OID: prime256v1
                NIST CURVE: P-256
    Signature Algorithm: ecdsa-with-SHA256
         30:45:02:21:00:c2:f3:98:c5:9e:c7:33:32:25:b7:e6:30:f2:
         a6:6f:f5:9a:62:d8:25:43:fd:ef:12:ef:95:3f:74:c1:c3:17:
         a6:02:20:2b:94:fa:8f:8e:f8:5e:fd:41:95:8f:43:bb:4e:22:
         58:2f:0c:1a:3d:03:c3:05:85:0e:9e:e5:5e:31:0d:39:40
-----BEGIN CERTIFICATE-----
MIIB4TCCAYcCAQIwCgYIKoZIzj0EAwIwgYcxCzAJBgNVBAYTAkVTMQswCQYDVQQI
DAJNQTEUMBIGA1UEBwwLVHJlcyBDYW50b3MxETAPBgNVBAoMCGVQcm9zaW1hMR4w
HAYDVQQDDBVlUHJvc2ltYSBNYWluIFRlc3QgQ0ExIjAgBgkqhkiG9w0BCQEWE21h
aW5jYUBlcHJvc2ltYS5jb20wHhcNMTYxMDEzMDkyMzE2WhcNMTYxMDE0MDkyMzE2
WjBxMQswCQYDVQQGEwJFUzELMAkGA1UECAwCTUExETAPBgNVBAoMCGVQcm9zaW1h
MRowGAYDVQQDDBFFeHBpcmVkIFB1Ymxpc2hlcjEmMCQGCSqGSIb3DQEJARYXZXhw
aXJlZHB1YkBlcHJvc2ltYS5jb20wWTATBgcqhkjOPQIBBggqhkjOPQMBBwNCAARu
C2FDS+QKmItW+JvzltwBpzEARi/7RbsZsus7OMjG0UO+uQwsWH/ESX/OuYmqmBWV
ptqSWyGnvgCPjZWrCbloMAoGCCqGSM49BAMCA0gAMEUCIQDC85jFnsczMiW35jDy
pm/1mmLYJUP97xLvlT90wcMXpgIgK5T6j474Xv1BlY9Du04iWC8MGj0DwwWFDp7l
XjENOUA=
-----END CERTIFICATE-----
