Certificate:
    Data:
        Version: 1 (0x0)
        Serial Number: 1 (0x1)
    Signature Algorithm: ecdsa-with-SHA256
        Issuer: C=ES, ST=MA, L=Tres Cantos, O=eProsima, CN=eProsima Main Test CA/emailAddress=mainca@eprosima.com
        Validity
            Not Before: Oct 10 08:56:59 2016 GMT
            Not After : Oct  8 08:56:59 2026 GMT
        Subject: C=ES, ST=MA, O=eProsima, CN=Main Publisher/emailAddress=mainpub@eprosima.com
        Subject Public Key Info:
            Public Key Algorithm: id-ecPublicKey
                Public-Key: (256 bit)
                pub: 
                    04:5f:e8:c6:d4:ae:ab:b3:0a:af:90:52:32:c2:59:
                    1f:3d:fa:5a:e9:ff:73:67:59:2a:d6:5b:af:69:f5:
                    7a:0b:42:bf:d1:68:78:dc:97:81:b0:b9:d7:04:ee:
                    9e:f1:85:10:61:67:d0:2a:f6:2e:d1:6f:43:01:49:
                    ae:0b:d9:f8:db
                ASN1 OID: prime256v1
                NIST CURVE: P-256
    Signature Algorithm: ecdsa-with-SHA256
         30:46:02:21:00:a4:67:71:cd:cb:10:44:7a:a5:e4:f4:8a:1b:
         65:f4:8d:97:0c:36:7c:cf:d3:34:25:b0:94:0c:0e:13:77:0b:
         a6:02:21:00:fd:9c:5c:47:89:ff:e4:1c:1e:7a:cd:71:68:47:
         f9:57:6a:d1:84:71:1f:d4:45:28:0e:84:7f:d9:33:b3:89:ee
-----BEGIN CERTIFICATE-----
MIIB3DCCAYECAQEwCgYIKoZIzj0EAwIwgYcxCzAJBgNVBAYTAkVTMQswCQYDVQQI
DAJNQTEUMBIGA1UEBwwLVHJlcyBDYW50b3MxETAPBgNVBAoMCGVQcm9zaW1hMR4w
HAYDVQQDDBVlUHJvc2ltYSBNYWluIFRlc3QgQ0ExIjAgBgkqhkiG9w0BCQEWE21h
aW5jYUBlcHJvc2ltYS5jb20wHhcNMTYxMDEwMDg1NjU5WhcNMjYxMDA4MDg1NjU5
WjBrMQswCQYDVQQGEwJFUzELMAkGA1UECAwCTUExETAPBgNVBAoMCGVQcm9zaW1h
MRcwFQYDVQQDDA5NYWluIFB1Ymxpc2hlcjEjMCEGCSqGSIb3DQEJARYUbWFpbnB1
YkBlcHJvc2ltYS5jb20wWTATBgcqhkjOPQIBBggqhkjOPQMBBwNCAARf6MbUrquz
Cq+QUjLCWR89+lrp/3NnWSrWW69p9XoLQr/RaHjcl4GwudcE7p7xhRBhZ9Aq9i7R
b0MBSa4L2fjbMAoGCCqGSM49BAMCA0kAMEYCIQCkZ3HNyxBEeqXk9IobZfSNlww2
fM/TNCWwlAwOE3cLpgIhAP2cXEeJ/+QcHnrNcWhH+Vdq0YRxH9RFKA6Ef9kzs4nu
-----END CERTIFICATE-----
