Certificate:
    Data:
        Version: 3 (0x2)
        Serial Number:
            ae:7b:ad:8c:07:5a:eb:09
        Signature Algorithm: ecdsa-with-SHA256
        Issuer: C=ES, ST=MA, L=Tres Cantos, O=eProsima, OU=eProsima, CN=eProsima Main Test CA/emailAddress=mainca@eprosima.com
        Validity
            Not Before: May 12 13:37:02 2026 GMT
            Not After : May 12 13:37:22 2026 GMT
        Subject: C=ES, ST=MA, O=eProsima, OU=eProsima, CN=Modifiable Subscriber/emailAddress=mainsub@eprosima.com
        Subject Public Key Info:
            Public Key Algorithm: id-ecPublicKey
                Public-Key: (256 bit)
                pub:
                    04:b0:e7:25:13:a7:1a:a9:dd:6c:83:11:56:b9:03:
                    05:16:9c:95:02:c1:b9:80:0b:75:55:21:95:81:3a:
                    af:88:13:0f:38:a9:fb:65:1f:df:ad:67:76:22:90:
                    7c:61:b6:b7:85:b2:15:3a:d6:3d:65:c7:71:a2:cd:
                    3f:85:09:ae:fc
                ASN1 OID: prime256v1
                NIST CURVE: P-256
        X509v3 extensions:
            X509v3 Basic Constraints: 
                CA:FALSE
            X509v3 Subject Key Identifier: 
                2C:60:50:16:CD:92:E2:AA:07:2E:05:0F:72:71:AC:5D:0C:70:7C:E7
            X509v3 Authority Key Identifier: 
                DirName:/C=ES/ST=MA/L=Tres Cantos/O=eProsima/OU=eProsima/CN=eProsima Main Test CA/emailAddress=mainca@eprosima.com
                serial:B6:70:A6:0A:36:B3:1B:61
    Signature Algorithm: ecdsa-with-SHA256
    Signature Value:
        30:45:02:21:00:8b:06:71:d3:f6:15:35:5b:c0:77:f7:06:66:
        ef:12:31:57:aa:aa:08:a6:7c:d5:fa:55:e2:07:81:42:7e:65:
        b7:02:20:23:56:8d:e6:51:74:10:22:69:7e:d3:b8:45:03:42:
        03:4a:cd:3a:0a:36:fa:a8:5b:74:90:b9:d5:0b:69:66:80
-----BEGIN CERTIFICATE-----
MIIDAjCCAqigAwIBAgIJAK57rYwHWusJMAoGCCqGSM49BAMCMIGaMQswCQYDVQQG
EwJFUzELMAkGA1UECAwCTUExFDASBgNVBAcMC1RyZXMgQ2FudG9zMREwDwYDVQQK
DAhlUHJvc2ltYTERMA8GA1UECwwIZVByb3NpbWExHjAcBgNVBAMMFWVQcm9zaW1h
IE1haW4gVGVzdCBDQTEiMCAGCSqGSIb3DQEJARYTbWFpbmNhQGVwcm9zaW1hLmNv
bTAeFw0yNjA1MTIxMzM3MDJaFw0yNjA1MTIxMzM3MjJaMIGFMQswCQYDVQQGEwJF
UzELMAkGA1UECAwCTUExETAPBgNVBAoMCGVQcm9zaW1hMREwDwYDVQQLDAhlUHJv
c2ltYTEeMBwGA1UEAwwVTW9kaWZpYWJsZSBTdWJzY3JpYmVyMSMwIQYJKoZIhvcN
AQkBFhRtYWluc3ViQGVwcm9zaW1hLmNvbTBZMBMGByqGSM49AgEGCCqGSM49AwEH
A0IABLDnJROnGqndbIMRVrkDBRaclQLBuYALdVUhlYE6r4gTDzip+2Uf361ndiKQ
fGG2t4WyFTrWPWXHcaLNP4UJrvyjgekwgeYwCQYDVR0TBAIwADAdBgNVHQ4EFgQU
LGBQFs2S4qoHLgUPcnGsXQxwfOcwgbkGA1UdIwSBsTCBrqGBoKSBnTCBmjELMAkG
A1UEBhMCRVMxCzAJBgNVBAgMAk1BMRQwEgYDVQQHDAtUcmVzIENhbnRvczERMA8G
A1UECgwIZVByb3NpbWExETAPBgNVBAsMCGVQcm9zaW1hMR4wHAYDVQQDDBVlUHJv
c2ltYSBNYWluIFRlc3QgQ0ExIjAgBgkqhkiG9w0BCQEWE21haW5jYUBlcHJvc2lt
YS5jb22CCQC2cKYKNrMbYTAKBggqhkjOPQQDAgNIADBFAiEAiwZx0/YVNVvAd/cG
Zu8SMVeqqgimfNX6VeIHgUJ+ZbcCICNWjeZRdBAiaX7TuEUDQgNKzToKNvqoW3SQ
udULaWaA
-----END CERTIFICATE-----
