Certificate:
    Data:
        Version: 1 (0x0)
        Serial Number: 2 (0x2)
    Signature Algorithm: ecdsa-with-SHA256
        Issuer: C=ES, ST=MA, L=Tres Cantos, O=eProsima, CN=eProsima Main Test CA/emailAddress=mainca@eprosima.com
        Validity
            Not Before: Oct 11 14:05:00 2016 GMT
            Not After : Oct  9 14:05:00 2026 GMT
        Subject: C=ES, ST=MA, O=eProsima, CN=Main Publisher/emailAddress=mainpub@eprosima.com
        Subject Public Key Info:
            Public Key Algorithm: id-ecPublicKey
                Public-Key: (256 bit)
                pub: 
                    04:35:d6:2e:86:49:e6:37:cd:f0:84:8f:91:21:a3:
                    ee:44:52:81:6a:de:82:f1:20:88:c1:db:da:96:64:
                    d2:7f:ee:10:6a:83:b8:4f:a1:72:0d:b5:ed:12:68:
                    84:fa:31:95:84:e9:3f:74:39:38:10:56:b2:5b:66:
                    36:0f:b3:95:68
                ASN1 OID: prime256v1
                NIST CURVE: P-256
    Signature Algorithm: ecdsa-with-SHA256
         30:45:02:20:1e:4f:73:ca:19:f3:f9:c5:00:ff:e7:8b:4c:0a:
         5d:7d:8f:56:fa:68:2e:ec:95:46:15:37:8e:62:20:38:7c:92:
         02:21:00:8e:78:24:73:87:11:d3:d5:67:a2:fe:ed:2c:62:07:
         b2:ee:da:8c:f2:c9:a1:98:18:c6:57:98:08:4d:bd:3c:4b
-----BEGIN CERTIFICATE-----
MIIB2zCCAYECAQIwCgYIKoZIzj0EAwIwgYcxCzAJBgNVBAYTAkVTMQswCQYDVQQI
DAJNQTEUMBIGA1UEBwwLVHJlcyBDYW50b3MxETAPBgNVBAoMCGVQcm9zaW1hMR4w
HAYDVQQDDBVlUHJvc2ltYSBNYWluIFRlc3QgQ0ExIjAgBgkqhkiG9w0BCQEWE21h
aW5jYUBlcHJvc2ltYS5jb20wHhcNMTYxMDExMTQwNTAwWhcNMjYxMDA5MTQwNTAw
WjBrMQswCQYDVQQGEwJFUzELMAkGA1UECAwCTUExETAPBgNVBAoMCGVQcm9zaW1h
MRcwFQYDVQQDDA5NYWluIFB1Ymxpc2hlcjEjMCEGCSqGSIb3DQEJARYUbWFpbnB1
YkBlcHJvc2ltYS5jb20wWTATBgcqhkjOPQIBBggqhkjOPQMBBwNCAAQ11i6GSeY3
zfCEj5Eho+5EUoFq3oLxIIjB29qWZNJ/7hBqg7hPoXINte0SaIT6MZWE6T90OTgQ
VrJbZjYPs5VoMAoGCCqGSM49BAMCA0gAMEUCIB5Pc8oZ8/nFAP/ni0wKXX2PVvpo
LuyVRhU3jmIgOHySAiEAjngkc4cR09Vnov7tLGIHsu7ajPLJoZgYxleYCE29PEs=
-----END CERTIFICATE-----
