Certificate:
    Data:
        Version: 1 (0x0)
        Serial Number: 3 (0x3)
    Signature Algorithm: ecdsa-with-SHA256
        Issuer: C=ES, ST=MA, L=Tres Cantos, O=eProsima, CN=eProsima Main Test CA/emailAddress=mainca@eprosima.com
        Validity
            Not Before: Oct 13 09:30:39 2016 GMT
            Not After : Oct 11 09:30:39 2026 GMT
        Subject: C=ES, ST=MA, O=eProsima, CN=Revoked Publisher/emailAddress=revokedpub@eprosima.com
        Subject Public Key Info:
            Public Key Algorithm: id-ecPublicKey
                Public-Key: (256 bit)
                pub: 
                    04:0f:ee:18:99:5e:26:21:92:81:01:42:88:ec:5e:
                    5b:ec:55:40:28:0b:db:bd:68:03:27:c2:8a:22:fa:
                    f0:5e:0e:97:3a:60:56:24:a1:c4:96:12:9d:a2:65:
                    16:d6:21:1b:cd:e0:0e:37:b7:e3:79:2f:4f:08:30:
                    62:74:59:a7:72
                ASN1 OID: prime256v1
                NIST CURVE: P-256
    Signature Algorithm: ecdsa-with-SHA256
         30:45:02:20:0a:d5:1f:bb:bf:ee:d6:fb:1c:d0:bd:5d:5c:0c:
         11:25:c4:c4:72:04:71:06:d4:de:3c:ea:2f:fd:a1:46:e1:62:
         02:21:00:df:c2:25:18:bf:67:e1:bb:db:d5:31:cc:65:4b:dd:
         03:2f:5d:e8:98:14:32:9b:9e:63:9d:52:19:a2:cd:1a:62
-----BEGIN CERTIFICATE-----
MIIB4TCCAYcCAQMwCgYIKoZIzj0EAwIwgYcxCzAJBgNVBAYTAkVTMQswCQYDVQQI
DAJNQTEUMBIGA1UEBwwLVHJlcyBDYW50b3MxETAPBgNVBAoMCGVQcm9zaW1hMR4w
HAYDVQQDDBVlUHJvc2ltYSBNYWluIFRlc3QgQ0ExIjAgBgkqhkiG9w0BCQEWE21h
aW5jYUBlcHJvc2ltYS5jb20wHhcNMTYxMDEzMDkzMDM5WhcNMjYxMDExMDkzMDM5
WjBxMQswCQYDVQQGEwJFUzELMAkGA1UECAwCTUExETAPBgNVBAoMCGVQcm9zaW1h
MRowGAYDVQQDDBFSZXZva2VkIFB1Ymxpc2hlcjEmMCQGCSqGSIb3DQEJARYXcmV2
b2tlZHB1YkBlcHJvc2ltYS5jb20wWTATBgcqhkjOPQIBBggqhkjOPQMBBwNCAAQP
7hiZXiYhkoEBQojsXlvsVUAoC9u9aAMnwooi+vBeDpc6YFYkocSWEp2iZRbWIRvN
4A43t+N5L08IMGJ0WadyMAoGCCqGSM49BAMCA0gAMEUCIArVH7u/7tb7HNC9XVwM
ESXExHIEcQbU3jzqL/2hRuFiAiEA38IlGL9n4bvb1THMZUvdAy9d6JgUMpueY51S
GaLNGmI=
-----END CERTIFICATE-----
