Certificate:
    Data:
        Version: 3 (0x2)
        Serial Number:
            ae:7b:ad:8c:07:5a:ea:f6
    Signature Algorithm: ecdsa-with-SHA256
        Issuer: C=ES, ST=MA, L=Tres Cantos, O=eProsima, OU=eProsima, CN=eProsima Main Test CA/emailAddress=mainca@eprosima.com
        Validity
            Not Before: Sep  6 09:07:08 2017 GMT
            Not After : Sep  4 09:07:08 2027 GMT
        Subject: C=ES, ST=MA, O=eProsima, OU=eProsima, CN=Revoked Publisher/emailAddress=revokedpub@eprosima.com
        Subject Public Key Info:
            Public Key Algorithm: id-ecPublicKey
                Public-Key: (256 bit)
                pub: 
                    04:3a:b9:d3:c7:c2:5b:e5:cd:b7:83:fb:12:ce:e8:
                    02:45:57:dc:07:4f:f4:54:aa:6b:79:20:fc:01:d0:
                    8f:dd:c6:b7:88:c9:4a:55:02:dd:bf:f2:a0:8e:b1:
                    37:7f:f7:15:ce:8d:e0:6c:7a:0d:c5:35:8d:79:38:
                    92:e0:4d:be:66
                ASN1 OID: prime256v1
                NIST CURVE: P-256
        X509v3 extensions:
            X509v3 Basic Constraints: 
                CA:FALSE
    Signature Algorithm: ecdsa-with-SHA256
         30:45:02:21:00:85:2c:f2:05:3b:01:18:fa:19:60:e0:cd:0f:
         e2:7e:68:99:bc:7a:d2:73:47:53:58:a8:bc:9f:bd:4b:98:6d:
         5b:02:20:51:82:7b:1f:5d:9d:8c:e6:d9:0e:0d:b2:8f:2a:32:
         bc:f6:0e:62:da:5a:54:3f:a9:2a:8d:c4:ab:8f:13:8e:fa
-----BEGIN CERTIFICATE-----
MIICJDCCAcqgAwIBAgIJAK57rYwHWur2MAoGCCqGSM49BAMCMIGaMQswCQYDVQQG
EwJFUzELMAkGA1UECAwCTUExFDASBgNVBAcMC1RyZXMgQ2FudG9zMREwDwYDVQQK
DAhlUHJvc2ltYTERMA8GA1UECwwIZVByb3NpbWExHjAcBgNVBAMMFWVQcm9zaW1h
IE1haW4gVGVzdCBDQTEiMCAGCSqGSIb3DQEJARYTbWFpbmNhQGVwcm9zaW1hLmNv
bTAeFw0xNzA5MDYwOTA3MDhaFw0yNzA5MDQwOTA3MDhaMIGEMQswCQYDVQQGEwJF
UzELMAkGA1UECAwCTUExETAPBgNVBAoMCGVQcm9zaW1hMREwDwYDVQQLDAhlUHJv
c2ltYTEaMBgGA1UEAwwRUmV2b2tlZCBQdWJsaXNoZXIxJjAkBgkqhkiG9w0BCQEW
F3Jldm9rZWRwdWJAZXByb3NpbWEuY29tMFkwEwYHKoZIzj0CAQYIKoZIzj0DAQcD
QgAEOrnTx8Jb5c23g/sSzugCRVfcB0/0VKpreSD8AdCP3ca3iMlKVQLdv/KgjrE3
f/cVzo3gbHoNxTWNeTiS4E2+ZqMNMAswCQYDVR0TBAIwADAKBggqhkjOPQQDAgNI
ADBFAiEAhSzyBTsBGPoZYODND+J+aJm8etJzR1NYqLyfvUuYbVsCIFGCex9dnYzm
2Q4Nso8qMrz2DmLaWlQ/qSqNxKuPE476
-----END CERTIFICATE-----
