Certificate:
    Data:
        Version: 1 (0x0)
        Serial Number: 4 (0x4)
    Signature Algorithm: ecdsa-with-SHA256
        Issuer: C=ES, ST=MA, L=Tres Cantos, O=eProsima, CN=eProsima Main Test CA/emailAddress=mainca@eprosima.com
        Validity
            Not Before: Jan 13 10:56:04 2017 GMT
            Not After : Jan 11 10:56:04 2027 GMT
        Subject: C=ES, ST=MA, O=eProsima, CN=Main Subscriber/emailAddress=mainsub@eprosima.com
        Subject Public Key Info:
            Public Key Algorithm: id-ecPublicKey
                Public-Key: (256 bit)
                pub: 
                    04:b2:3a:08:d6:13:6f:24:01:84:b5:8e:8a:03:85:
                    c3:ff:69:73:71:4b:7d:48:ba:b0:d6:c9:da:19:05:
                    fd:2b:82:74:ff:28:27:4f:19:ad:b5:10:21:ad:b7:
                    cf:55:4c:dc:76:af:d6:c1:ba:71:f5:d1:f6:c5:ed:
                    0f:8c:c7:32:53
                ASN1 OID: prime256v1
                NIST CURVE: P-256
    Signature Algorithm: ecdsa-with-SHA256
         30:45:02:20:41:ef:44:b7:ae:0e:59:f4:85:c5:bc:c9:c1:97:
         a7:d8:d0:73:c6:c9:c8:db:76:d7:26:39:f7:38:72:7b:16:e5:
         02:21:00:b0:d0:a0:d0:2e:fb:a6:be:dd:e7:18:0d:3a:d8:16:
         48:d3:c8:f6:b7:cd:1b:ab:ec:43:6a:4a:2c:46:72:3f:1b
-----BEGIN CERTIFICATE-----
MIIB3DCCAYICAQQwCgYIKoZIzj0EAwIwgYcxCzAJBgNVBAYTAkVTMQswCQYDVQQI
DAJNQTEUMBIGA1UEBwwLVHJlcyBDYW50b3MxETAPBgNVBAoMCGVQcm9zaW1hMR4w
HAYDVQQDDBVlUHJvc2ltYSBNYWluIFRlc3QgQ0ExIjAgBgkqhkiG9w0BCQEWE21h
aW5jYUBlcHJvc2ltYS5jb20wHhcNMTcwMTEzMTA1NjA0WhcNMjcwMTExMTA1NjA0
WjBsMQswCQYDVQQGEwJFUzELMAkGA1UECAwCTUExETAPBgNVBAoMCGVQcm9zaW1h
MRgwFgYDVQQDDA9NYWluIFN1YnNjcmliZXIxIzAhBgkqhkiG9w0BCQEWFG1haW5z
dWJAZXByb3NpbWEuY29tMFkwEwYHKoZIzj0CAQYIKoZIzj0DAQcDQgAEsjoI1hNv
JAGEtY6KA4XD/2lzcUt9SLqw1snaGQX9K4J0/ygnTxmttRAhrbfPVUzcdq/Wwbpx
9dH2xe0PjMcyUzAKBggqhkjOPQQDAgNIADBFAiBB70S3rg5Z9IXFvMnBl6fY0HPG
ycjbdtcmOfc4cnsW5QIhALDQoNAu+6a+3ecYDTrYFkjTyPa3zRur7ENqSixGcj8b
-----END CERTIFICATE-----
