Certificate:
    Data:
        Version: 3 (0x2)
        Serial Number:
            ae:7b:ad:8c:07:5a:ea:f3
    Signature Algorithm: ecdsa-with-SHA256
        Issuer: C=ES, ST=MA, L=Tres Cantos, O=eProsima, OU=eProsima, CN=eProsima Main Test CA/emailAddress=mainca@eprosima.com
        Validity
            Not Before: Sep  6 09:04:05 2017 GMT
            Not After : Sep  4 09:04:05 2027 GMT
        Subject: C=ES, ST=MA, O=eProsima, OU=eProsima, CN=Main Publisher/emailAddress=mainpub@eprosima.com
        Subject Public Key Info:
            Public Key Algorithm: id-ecPublicKey
                Public-Key: (256 bit)
                pub: 
                    04:55:95:f0:0b:1f:56:3f:80:4e:97:7e:1b:69:9c:
                    7b:54:53:22:c4:a3:96:e9:99:2c:3d:c7:a8:8c:ec:
                    1c:fd:d1:35:e7:ba:7d:63:01:9b:42:82:00:73:2c:
                    52:e2:e1:0b:db:53:d9:45:a0:f8:64:1c:be:c5:0d:
                    51:18:14:9f:90
                ASN1 OID: prime256v1
                NIST CURVE: P-256
        X509v3 extensions:
            X509v3 Basic Constraints: 
                CA:FALSE
    Signature Algorithm: ecdsa-with-SHA256
         30:45:02:21:00:9c:e7:46:44:78:0c:95:eb:a7:38:9a:a7:af:
         4b:6c:bd:84:3b:bb:85:09:25:3d:49:b1:79:9e:e2:7e:dc:99:
         42:02:20:60:78:bd:d0:1e:cd:bc:4b:e3:25:2f:dd:56:6d:c8:
         29:78:3d:df:72:bc:bd:90:de:c6:19:b0:48:44:31:c7:46
-----BEGIN CERTIFICATE-----
MIICHTCCAcOgAwIBAgIJAK57rYwHWurzMAoGCCqGSM49BAMCMIGaMQswCQYDVQQG
EwJFUzELMAkGA1UECAwCTUExFDASBgNVBAcMC1RyZXMgQ2FudG9zMREwDwYDVQQK
DAhlUHJvc2ltYTERMA8GA1UECwwIZVByb3NpbWExHjAcBgNVBAMMFWVQcm9zaW1h
IE1haW4gVGVzdCBDQTEiMCAGCSqGSIb3DQEJARYTbWFpbmNhQGVwcm9zaW1hLmNv
bTAeFw0xNzA5MDYwOTA0MDVaFw0yNzA5MDQwOTA0MDVaMH4xCzAJBgNVBAYTAkVT
MQswCQYDVQQIDAJNQTERMA8GA1UECgwIZVByb3NpbWExETAPBgNVBAsMCGVQcm9z
aW1hMRcwFQYDVQQDDA5NYWluIFB1Ymxpc2hlcjEjMCEGCSqGSIb3DQEJARYUbWFp
bnB1YkBlcHJvc2ltYS5jb20wWTATBgcqhkjOPQIBBggqhkjOPQMBBwNCAARVlfAL
H1Y/gE6XfhtpnHtUUyLEo5bpmSw9x6iM7Bz90TXnun1jAZtCggBzLFLi4QvbU9lF
oPhkHL7FDVEYFJ+Qow0wCzAJBgNVHRMEAjAAMAoGCCqGSM49BAMCA0gAMEUCIQCc
50ZEeAyV66c4mqevS2y9hDu7hQklPUmxeZ7iftyZQgIgYHi90B7NvEvjJS/dVm3I
KXg933K8vZDexhmwSEQxx0Y=
-----END CERTIFICATE-----
