Certificate:
    Data:
        Version: 3 (0x2)
        Serial Number:
            ae:7b:ad:8c:07:5a:ea:f4
    Signature Algorithm: ecdsa-with-SHA256
        Issuer: C=ES, ST=MA, L=Tres Cantos, O=eProsima, OU=eProsima, CN=eProsima Main Test CA/emailAddress=mainca@eprosima.com
        Validity
            Not Before: Sep  6 09:05:01 2017 GMT
            Not After : Sep  4 09:05:01 2027 GMT
        Subject: C=ES, ST=MA, O=eProsima, OU=eProsima, CN=Main Subscriber/emailAddress=mainsub@eprosima.com
        Subject Public Key Info:
            Public Key Algorithm: id-ecPublicKey
                Public-Key: (256 bit)
                pub: 
                    04:bc:b4:db:7e:99:f8:24:a9:f9:ce:4d:ab:4e:4a:
                    7c:17:73:9f:2a:15:0d:3b:0d:f5:f7:93:28:0b:df:
                    00:f5:3d:96:84:11:c6:e4:fc:38:7b:bd:22:68:8a:
                    d7:07:80:d8:3c:b9:b0:c2:55:b2:eb:0c:8d:a7:a4:
                    75:70:8b:16:3d
                ASN1 OID: prime256v1
                NIST CURVE: P-256
        X509v3 extensions:
            X509v3 Basic Constraints: 
                CA:FALSE
    Signature Algorithm: ecdsa-with-SHA256
         30:46:02:21:00:e0:aa:1e:90:67:d9:ef:37:cf:aa:30:d5:8a:
         9c:00:0c:7d:76:b8:61:49:eb:4a:7e:43:6d:bc:ea:2c:50:71:
         05:02:21:00:ed:73:99:02:f2:82:bc:49:69:43:97:19:14:a6:
         d0:98:6a:49:ba:e3:ae:77:20:ab:6d:a5:43:b8:f1:5b:bb:46
-----BEGIN CERTIFICATE-----
MIICHzCCAcSgAwIBAgIJAK57rYwHWur0MAoGCCqGSM49BAMCMIGaMQswCQYDVQQG
EwJFUzELMAkGA1UECAwCTUExFDASBgNVBAcMC1RyZXMgQ2FudG9zMREwDwYDVQQK
DAhlUHJvc2ltYTERMA8GA1UECwwIZVByb3NpbWExHjAcBgNVBAMMFWVQcm9zaW1h
IE1haW4gVGVzdCBDQTEiMCAGCSqGSIb3DQEJARYTbWFpbmNhQGVwcm9zaW1hLmNv
bTAeFw0xNzA5MDYwOTA1MDFaFw0yNzA5MDQwOTA1MDFaMH8xCzAJBgNVBAYTAkVT
MQswCQYDVQQIDAJNQTERMA8GA1UECgwIZVByb3NpbWExETAPBgNVBAsMCGVQcm9z
aW1hMRgwFgYDVQQDDA9NYWluIFN1YnNjcmliZXIxIzAhBgkqhkiG9w0BCQEWFG1h
aW5zdWJAZXByb3NpbWEuY29tMFkwEwYHKoZIzj0CAQYIKoZIzj0DAQcDQgAEvLTb
fpn4JKn5zk2rTkp8F3OfKhUNOw3195MoC98A9T2WhBHG5Pw4e70iaIrXB4DYPLmw
wlWy6wyNp6R1cIsWPaMNMAswCQYDVR0TBAIwADAKBggqhkjOPQQDAgNJADBGAiEA
4KoekGfZ7zfPqjDVipwADH12uGFJ60p+Q2286ixQcQUCIQDtc5kC8oK8SWlDlxkU
ptCYakm64653IKttpUO48Vu7Rg==
-----END CERTIFICATE-----
