Certificate:
    Data:
        Version: 3 (0x2)
        Serial Number:
            ae:7b:ad:8c:07:5a:ea:f8
        Signature Algorithm: ecdsa-with-SHA256
        Issuer: C=ES, ST=MA, L=Tres Cantos, O=eProsima, OU=eProsima, CN=eProsima Other Test CA/emailAddress=otherca@eprosima.com
        Validity
            Not Before: Mar 30 10:38:52 2023 GMT
            Not After : Mar 27 10:38:52 2033 GMT
        Subject: C=ES, ST=MA, O=eProsima, OU=eProsima, CN=Other Subscriber/emailAddress=othersub@eprosima.com
        Subject Public Key Info:
            Public Key Algorithm: id-ecPublicKey
                Public-Key: (256 bit)
                pub:
                    04:3a:9b:41:92:b8:82:1d:c3:be:39:f6:b3:73:3c:
                    e6:e2:17:dc:17:ab:86:ef:6b:6a:35:5a:00:a8:da:
                    dc:b2:19:1f:c6:8f:93:b6:b7:c9:5f:13:0e:20:fa:
                    66:a1:30:95:82:59:be:b8:3b:1b:8a:80:de:da:86:
                    32:db:ce:4e:2c
                ASN1 OID: prime256v1
                NIST CURVE: P-256
        X509v3 extensions:
            X509v3 Basic Constraints: 
                CA:FALSE
            X509v3 Subject Key Identifier: 
                B1:50:10:A4:24:85:09:85:E9:85:ED:76:6D:FE:00:10:2C:79:09:18
            X509v3 Authority Key Identifier: 
                C9:02:C8:50:0E:0C:A8:D5:FA:3A:61:F4:DE:9E:BC:03:D7:F1:A9:F8
    Signature Algorithm: ecdsa-with-SHA256
    Signature Value:
        30:44:02:20:56:55:cc:e5:c8:e3:b0:f2:b2:b6:60:06:64:cd:
        d8:a9:09:ac:60:c8:8f:22:fe:89:cf:70:90:f8:51:a5:9d:6e:
        02:20:6e:5d:a5:8c:de:87:26:47:fb:6d:56:cd:d3:9e:d0:55:
        15:d9:eb:aa:0f:02:b6:d3:d3:18:2e:34:f1:cc:05:fb
-----BEGIN CERTIFICATE-----
MIICYjCCAgmgAwIBAgIJAK57rYwHWur4MAoGCCqGSM49BAMCMIGcMQswCQYDVQQG
EwJFUzELMAkGA1UECAwCTUExFDASBgNVBAcMC1RyZXMgQ2FudG9zMREwDwYDVQQK
DAhlUHJvc2ltYTERMA8GA1UECwwIZVByb3NpbWExHzAdBgNVBAMMFmVQcm9zaW1h
IE90aGVyIFRlc3QgQ0ExIzAhBgkqhkiG9w0BCQEWFG90aGVyY2FAZXByb3NpbWEu
Y29tMB4XDTIzMDMzMDEwMzg1MloXDTMzMDMyNzEwMzg1MlowgYExCzAJBgNVBAYT
AkVTMQswCQYDVQQIDAJNQTERMA8GA1UECgwIZVByb3NpbWExETAPBgNVBAsMCGVQ
cm9zaW1hMRkwFwYDVQQDDBBPdGhlciBTdWJzY3JpYmVyMSQwIgYJKoZIhvcNAQkB
FhVvdGhlcnN1YkBlcHJvc2ltYS5jb20wWTATBgcqhkjOPQIBBggqhkjOPQMBBwNC
AAQ6m0GSuIIdw7459rNzPObiF9wXq4bva2o1WgCo2tyyGR/Gj5O2t8lfEw4g+mah
MJWCWb64OxuKgN7ahjLbzk4so00wSzAJBgNVHRMEAjAAMB0GA1UdDgQWBBSxUBCk
JIUJhemF7XZt/gAQLHkJGDAfBgNVHSMEGDAWgBTJAshQDgyo1fo6YfTenrwD1/Gp
+DAKBggqhkjOPQQDAgNHADBEAiBWVczlyOOw8rK2YAZkzdipCaxgyI8i/onPcJD4
UaWdbgIgbl2ljN6HJkf7bVbN057QVRXZ66oPArbT0xguNPHMBfs=
-----END CERTIFICATE-----
