Certificate:
    Data:
        Version: 3 (0x2)
        Serial Number:
            ae:7b:ad:8c:07:5a:ea:f7
    Signature Algorithm: ecdsa-with-SHA256
        Issuer: C=ES, ST=MA, L=Tres Cantos, O=eProsima, OU=eProsima, CN=eProsima Main Test CA/emailAddress=mainca@eprosima.com
        Validity
            Not Before: Sep  6 09:20:51 2017 GMT
            Not After : Sep  4 09:20:51 2027 GMT
        Subject: C=ES, ST=MA, O=eProsima, OU=eProsima, CN=Password Publisher/emailAddress=pwdpub@eprosima.com
        Subject Public Key Info:
            Public Key Algorithm: id-ecPublicKey
                Public-Key: (256 bit)
                pub: 
                    04:e7:c0:70:9e:94:7f:04:96:b9:67:7a:a1:af:a8:
                    d1:c4:76:b1:96:b1:4d:76:9e:ee:fb:79:d2:de:02:
                    15:0b:df:0f:cd:2d:29:8a:69:cc:6c:6d:c1:ae:2d:
                    7d:51:9d:88:3b:10:60:d7:90:f3:17:07:a8:de:ef:
                    bf:a7:a7:f1:36
                ASN1 OID: prime256v1
                NIST CURVE: P-256
        X509v3 extensions:
            X509v3 Basic Constraints: 
                CA:FALSE
    Signature Algorithm: ecdsa-with-SHA256
         30:46:02:21:00:81:54:e7:56:75:c4:57:a1:1c:7c:29:f8:c1:
         e8:4f:6d:4e:33:1f:bf:ab:ee:b1:7a:10:72:86:df:c5:b9:81:
         ef:02:21:00:9a:8a:81:57:17:10:50:b3:e3:02:b5:e2:a5:91:
         00:f5:38:bd:5b:6d:9d:c2:2f:08:39:a3:7d:25:2b:1c:97:3b
-----BEGIN CERTIFICATE-----
MIICIjCCAcegAwIBAgIJAK57rYwHWur3MAoGCCqGSM49BAMCMIGaMQswCQYDVQQG
EwJFUzELMAkGA1UECAwCTUExFDASBgNVBAcMC1RyZXMgQ2FudG9zMREwDwYDVQQK
DAhlUHJvc2ltYTERMA8GA1UECwwIZVByb3NpbWExHjAcBgNVBAMMFWVQcm9zaW1h
IE1haW4gVGVzdCBDQTEiMCAGCSqGSIb3DQEJARYTbWFpbmNhQGVwcm9zaW1hLmNv
bTAeFw0xNzA5MDYwOTIwNTFaFw0yNzA5MDQwOTIwNTFaMIGBMQswCQYDVQQGEwJF
UzELMAkGA1UECAwCTUExETAPBgNVBAoMCGVQcm9zaW1hMREwDwYDVQQLDAhlUHJv
c2ltYTEbMBkGA1UEAwwSUGFzc3dvcmQgUHVibGlzaGVyMSIwIAYJKoZIhvcNAQkB
FhNwd2RwdWJAZXByb3NpbWEuY29tMFkwEwYHKoZIzj0CAQYIKoZIzj0DAQcDQgAE
58BwnpR/BJa5Z3qhr6jRxHaxlrFNdp7u+3nS3gIVC98PzS0pimnMbG3Bri19UZ2I
OxBg15DzFweo3u+/p6fxNqMNMAswCQYDVR0TBAIwADAKBggqhkjOPQQDAgNJADBG
AiEAgVTnVnXEV6EcfCn4wehPbU4zH7+r7rF6EHKG38W5ge8CIQCaioFXFxBQs+MC
teKlkQD1OL1bbZ3CLwg5o30lKxyXOw==
-----END CERTIFICATE-----
