Certificate:
    Data:
        Version: 3 (0x2)
        Serial Number:
            ae:7b:ad:8c:07:5a:ea:f5
    Signature Algorithm: ecdsa-with-SHA256
        Issuer: C=ES, ST=MA, L=Tres Cantos, O=eProsima, OU=eProsima, CN=eProsima Main Test CA/emailAddress=mainca@eprosima.com
        Validity
            Not Before: Sep  6 09:06:16 2017 GMT
            Not After : Sep  7 09:06:16 2017 GMT
        Subject: C=ES, ST=MA, O=eProsima, OU=eProsima, CN=Expired Publisher/emailAddress=expiredpub@eprosima.com
        Subject Public Key Info:
            Public Key Algorithm: id-ecPublicKey
                Public-Key: (256 bit)
                pub: 
                    04:23:4a:96:f6:eb:d8:76:fc:74:df:47:a6:e3:82:
                    46:e3:ad:32:65:fe:9e:3a:e5:04:a8:5d:a9:b6:8b:
                    02:03:d5:be:0a:c8:8e:10:51:3f:e7:0a:42:f4:eb:
                    8e:04:03:30:6b:30:0e:9a:a3:4e:2a:e9:64:c4:b2:
                    e5:ba:5f:39:c9
                ASN1 OID: prime256v1
                NIST CURVE: P-256
        X509v3 extensions:
            X509v3 Basic Constraints: 
                CA:FALSE
    Signature Algorithm: ecdsa-with-SHA256
         30:46:02:21:00:95:00:52:10:22:87:79:1f:e5:2a:50:da:34:
         1f:61:ed:5c:22:3b:7b:74:3c:95:09:f6:8b:56:81:dc:ad:1a:
         33:02:21:00:d7:b7:a3:4f:e7:91:fc:6f:17:2e:02:18:4b:f5:
         f7:ef:de:d4:86:34:5c:ee:6c:32:52:9c:b7:9e:88:3d:fd:30
-----BEGIN CERTIFICATE-----
MIICJTCCAcqgAwIBAgIJAK57rYwHWur1MAoGCCqGSM49BAMCMIGaMQswCQYDVQQG
EwJFUzELMAkGA1UECAwCTUExFDASBgNVBAcMC1RyZXMgQ2FudG9zMREwDwYDVQQK
DAhlUHJvc2ltYTERMA8GA1UECwwIZVByb3NpbWExHjAcBgNVBAMMFWVQcm9zaW1h
IE1haW4gVGVzdCBDQTEiMCAGCSqGSIb3DQEJARYTbWFpbmNhQGVwcm9zaW1hLmNv
bTAeFw0xNzA5MDYwOTA2MTZaFw0xNzA5MDcwOTA2MTZaMIGEMQswCQYDVQQGEwJF
UzELMAkGA1UECAwCTUExETAPBgNVBAoMCGVQcm9zaW1hMREwDwYDVQQLDAhlUHJv
c2ltYTEaMBgGA1UEAwwRRXhwaXJlZCBQdWJsaXNoZXIxJjAkBgkqhkiG9w0BCQEW
F2V4cGlyZWRwdWJAZXByb3NpbWEuY29tMFkwEwYHKoZIzj0CAQYIKoZIzj0DAQcD
QgAEI0qW9uvYdvx030em44JG460yZf6eOuUEqF2ptosCA9W+CsiOEFE/5wpC9OuO
BAMwazAOmqNOKulkxLLlul85yaMNMAswCQYDVR0TBAIwADAKBggqhkjOPQQDAgNJ
ADBGAiEAlQBSECKHeR/lKlDaNB9h7VwiO3t0PJUJ9otWgdytGjMCIQDXt6NP55H8
bxcuAhhL9ffv3tSGNFzubDJSnLeeiD39MA==
-----END CERTIFICATE-----
